target datalayout = "e-m:e-p270:32:32-p271:32:32-p272:64:64-i64:64-i128:128-f80:128-n8:16:32:64-S128"
target triple = "x86_64-pc-linux-gnu"

%struct.bignum_st = type { ptr, i32, i32, i32, i32 }

; Function Attrs: nounwind uwtable
define i32 @BN_GF2m_mod_mul_arr(ptr noundef %0, ptr noundef %1, ptr noundef %2, ptr noundef %3, ptr noundef %4) #0 {
  %6 = alloca i32, align 4
  %7 = alloca ptr, align 8
  %8 = alloca ptr, align 8
  %9 = alloca ptr, align 8
  %10 = alloca ptr, align 8
  %11 = alloca ptr, align 8
  %12 = alloca i32, align 4
  %13 = alloca i32, align 4
  %14 = alloca i32, align 4
  %15 = alloca i32, align 4
  %16 = alloca i32, align 4
  %17 = alloca ptr, align 8
  %18 = alloca i64, align 8
  %19 = alloca i64, align 8
  %20 = alloca i64, align 8
  %21 = alloca i64, align 8
  %22 = alloca [4 x i64], align 16
  %23 = alloca i32, align 4
  store ptr %0, ptr %7, align 8, !tbaa !3
  store ptr %1, ptr %8, align 8, !tbaa !3
  store ptr %2, ptr %9, align 8, !tbaa !3
  store ptr %3, ptr %10, align 8, !tbaa !19
  store ptr %4, ptr %11, align 8, !tbaa !29
  call void @llvm.lifetime.start.p0(i64 4, ptr %12) #3
  call void @llvm.lifetime.start.p0(i64 4, ptr %13) #3
  call void @llvm.lifetime.start.p0(i64 4, ptr %14) #3
  call void @llvm.lifetime.start.p0(i64 4, ptr %15) #3
  call void @llvm.lifetime.start.p0(i64 4, ptr %16) #3
  store i32 0, ptr %16, align 4, !tbaa !12
  call void @llvm.lifetime.start.p0(i64 8, ptr %17) #3
  call void @llvm.lifetime.start.p0(i64 8, ptr %18) #3
  call void @llvm.lifetime.start.p0(i64 8, ptr %19) #3
  call void @llvm.lifetime.start.p0(i64 8, ptr %20) #3
  call void @llvm.lifetime.start.p0(i64 8, ptr %21) #3
  call void @llvm.lifetime.start.p0(i64 32, ptr %22) #3
  %24 = load ptr, ptr %8, align 8, !tbaa !3
  %25 = load ptr, ptr %9, align 8, !tbaa !3
  %26 = icmp eq ptr %24, %25
  br i1 %26, label %27, label %33

27:                                               ; preds = %5
  %28 = load ptr, ptr %7, align 8, !tbaa !3
  %29 = load ptr, ptr %8, align 8, !tbaa !3
  %30 = load ptr, ptr %10, align 8, !tbaa !19
  %31 = load ptr, ptr %11, align 8, !tbaa !29
  %32 = call i32 @BN_GF2m_mod_sqr_arr(ptr noundef %28, ptr noundef %29, ptr noundef %30, ptr noundef %31)
  store i32 %32, ptr %6, align 4
  store i32 1, ptr %23, align 4
  br label %184

33:                                               ; preds = %5
  %34 = load ptr, ptr %11, align 8, !tbaa !29
  call void @BN_CTX_start(ptr noundef %34)
  %35 = load ptr, ptr %11, align 8, !tbaa !29
  %36 = call ptr @BN_CTX_get(ptr noundef %35)
  store ptr %36, ptr %17, align 8, !tbaa !3
  %37 = icmp eq ptr %36, null
  br i1 %37, label %38, label %39

38:                                               ; preds = %33
  br label %181

39:                                               ; preds = %33
  %40 = load ptr, ptr %8, align 8, !tbaa !3
  %41 = getelementptr inbounds nuw %struct.bignum_st, ptr %40, i32 0, i32 1
  %42 = load i32, ptr %41, align 8, !tbaa !8
  %43 = load ptr, ptr %9, align 8, !tbaa !3
  %44 = getelementptr inbounds nuw %struct.bignum_st, ptr %43, i32 0, i32 1
  %45 = load i32, ptr %44, align 8, !tbaa !8
  %46 = add nsw i32 %42, %45
  %47 = add nsw i32 %46, 4
  store i32 %47, ptr %12, align 4, !tbaa !12
  %48 = load ptr, ptr %17, align 8, !tbaa !3
  %49 = load i32, ptr %12, align 4, !tbaa !12
  %50 = call ptr @bn_wexpand(ptr noundef %48, i32 noundef %49)
  %51 = icmp ne ptr %50, null
  br i1 %51, label %53, label %52

52:                                               ; preds = %39
  br label %181

53:                                               ; preds = %39
  %54 = load i32, ptr %12, align 4, !tbaa !12
  %55 = load ptr, ptr %17, align 8, !tbaa !3
  %56 = getelementptr inbounds nuw %struct.bignum_st, ptr %55, i32 0, i32 1
  store i32 %54, ptr %56, align 8, !tbaa !8
  store i32 0, ptr %13, align 4, !tbaa !12
  br label %57

57:                                               ; preds = %68, %53
  %58 = load i32, ptr %13, align 4, !tbaa !12
  %59 = load i32, ptr %12, align 4, !tbaa !12
  %60 = icmp slt i32 %58, %59
  br i1 %60, label %61, label %71

61:                                               ; preds = %57
  %62 = load ptr, ptr %17, align 8, !tbaa !3
  %63 = getelementptr inbounds nuw %struct.bignum_st, ptr %62, i32 0, i32 0
  %64 = load ptr, ptr %63, align 8, !tbaa !13
  %65 = load i32, ptr %13, align 4, !tbaa !12
  %66 = sext i32 %65 to i64
  %67 = getelementptr inbounds i64, ptr %64, i64 %66
  store i64 0, ptr %67, align 8, !tbaa !14
  br label %68

68:                                               ; preds = %61
  %69 = load i32, ptr %13, align 4, !tbaa !12
  %70 = add nsw i32 %69, 1
  store i32 %70, ptr %13, align 4, !tbaa !12
  br label %57, !llvm.loop !31

71:                                               ; preds = %57
  store i32 0, ptr %14, align 4, !tbaa !12
  br label %72

72:                                               ; preds = %169, %71
  %73 = load i32, ptr %14, align 4, !tbaa !12
  %74 = load ptr, ptr %9, align 8, !tbaa !3
  %75 = getelementptr inbounds nuw %struct.bignum_st, ptr %74, i32 0, i32 1
  %76 = load i32, ptr %75, align 8, !tbaa !8
  %77 = icmp slt i32 %73, %76
  br i1 %77, label %78, label %172

78:                                               ; preds = %72
  %79 = load ptr, ptr %9, align 8, !tbaa !3
  %80 = getelementptr inbounds nuw %struct.bignum_st, ptr %79, i32 0, i32 0
  %81 = load ptr, ptr %80, align 8, !tbaa !13
  %82 = load i32, ptr %14, align 4, !tbaa !12
  %83 = sext i32 %82 to i64
  %84 = getelementptr inbounds i64, ptr %81, i64 %83
  %85 = load i64, ptr %84, align 8, !tbaa !14
  store i64 %85, ptr %21, align 8, !tbaa !14
  %86 = load i32, ptr %14, align 4, !tbaa !12
  %87 = add nsw i32 %86, 1
  %88 = load ptr, ptr %9, align 8, !tbaa !3
  %89 = getelementptr inbounds nuw %struct.bignum_st, ptr %88, i32 0, i32 1
  %90 = load i32, ptr %89, align 8, !tbaa !8
  %91 = icmp eq i32 %87, %90
  br i1 %91, label %92, label %93

92:                                               ; preds = %78
  br label %102

93:                                               ; preds = %78
  %94 = load ptr, ptr %9, align 8, !tbaa !3
  %95 = getelementptr inbounds nuw %struct.bignum_st, ptr %94, i32 0, i32 0
  %96 = load ptr, ptr %95, align 8, !tbaa !13
  %97 = load i32, ptr %14, align 4, !tbaa !12
  %98 = add nsw i32 %97, 1
  %99 = sext i32 %98 to i64
  %100 = getelementptr inbounds i64, ptr %96, i64 %99
  %101 = load i64, ptr %100, align 8, !tbaa !14
  br label %102

102:                                              ; preds = %93, %92
  %103 = phi i64 [ 0, %92 ], [ %101, %93 ]
  store i64 %103, ptr %20, align 8, !tbaa !14
  store i32 0, ptr %13, align 4, !tbaa !12
  br label %104

104:                                              ; preds = %165, %102
  %105 = load i32, ptr %13, align 4, !tbaa !12
  %106 = load ptr, ptr %8, align 8, !tbaa !3
  %107 = getelementptr inbounds nuw %struct.bignum_st, ptr %106, i32 0, i32 1
  %108 = load i32, ptr %107, align 8, !tbaa !8
  %109 = icmp slt i32 %105, %108
  br i1 %109, label %110, label %168

110:                                              ; preds = %104
  %111 = load ptr, ptr %8, align 8, !tbaa !3
  %112 = getelementptr inbounds nuw %struct.bignum_st, ptr %111, i32 0, i32 0
  %113 = load ptr, ptr %112, align 8, !tbaa !13
  %114 = load i32, ptr %13, align 4, !tbaa !12
  %115 = sext i32 %114 to i64
  %116 = getelementptr inbounds i64, ptr %113, i64 %115
  %117 = load i64, ptr %116, align 8, !tbaa !14
  store i64 %117, ptr %19, align 8, !tbaa !14
  %118 = load i32, ptr %13, align 4, !tbaa !12
  %119 = add nsw i32 %118, 1
  %120 = load ptr, ptr %8, align 8, !tbaa !3
  %121 = getelementptr inbounds nuw %struct.bignum_st, ptr %120, i32 0, i32 1
  %122 = load i32, ptr %121, align 8, !tbaa !8
  %123 = icmp eq i32 %119, %122
  br i1 %123, label %124, label %125

124:                                              ; preds = %110
  br label %134

125:                                              ; preds = %110
  %126 = load ptr, ptr %8, align 8, !tbaa !3
  %127 = getelementptr inbounds nuw %struct.bignum_st, ptr %126, i32 0, i32 0
  %128 = load ptr, ptr %127, align 8, !tbaa !13
  %129 = load i32, ptr %13, align 4, !tbaa !12
  %130 = add nsw i32 %129, 1
  %131 = sext i32 %130 to i64
  %132 = getelementptr inbounds i64, ptr %128, i64 %131
  %133 = load i64, ptr %132, align 8, !tbaa !14
  br label %134

134:                                              ; preds = %125, %124
  %135 = phi i64 [ 0, %124 ], [ %133, %125 ]
  store i64 %135, ptr %18, align 8, !tbaa !14
  %136 = getelementptr inbounds [4 x i64], ptr %22, i64 0, i64 0
  %137 = load i64, ptr %18, align 8, !tbaa !14
  %138 = load i64, ptr %19, align 8, !tbaa !14
  %139 = load i64, ptr %20, align 8, !tbaa !14
  %140 = load i64, ptr %21, align 8, !tbaa !14
  call void @bn_GF2m_mul_2x2(ptr noundef %136, i64 noundef %137, i64 noundef %138, i64 noundef %139, i64 noundef %140)
  store i32 0, ptr %15, align 4, !tbaa !12
  br label %141

141:                                              ; preds = %161, %134
  %142 = load i32, ptr %15, align 4, !tbaa !12
  %143 = icmp slt i32 %142, 4
  br i1 %143, label %144, label %164

144:                                              ; preds = %141
  %145 = load i32, ptr %15, align 4, !tbaa !12
  %146 = sext i32 %145 to i64
  %147 = getelementptr inbounds [4 x i64], ptr %22, i64 0, i64 %146
  %148 = load i64, ptr %147, align 8, !tbaa !14
  %149 = load ptr, ptr %17, align 8, !tbaa !3
  %150 = getelementptr inbounds nuw %struct.bignum_st, ptr %149, i32 0, i32 0
  %151 = load ptr, ptr %150, align 8, !tbaa !13
  %152 = load i32, ptr %13, align 4, !tbaa !12
  %153 = load i32, ptr %14, align 4, !tbaa !12
  %154 = add nsw i32 %152, %153
  %155 = load i32, ptr %15, align 4, !tbaa !12
  %156 = add nsw i32 %154, %155
  %157 = sext i32 %156 to i64
  %158 = getelementptr inbounds i64, ptr %151, i64 %157
  %159 = load i64, ptr %158, align 8, !tbaa !14
  %160 = xor i64 %159, %148
  store i64 %160, ptr %158, align 8, !tbaa !14
  br label %161

161:                                              ; preds = %144
  %162 = load i32, ptr %15, align 4, !tbaa !12
  %163 = add nsw i32 %162, 1
  store i32 %163, ptr %15, align 4, !tbaa !12
  br label %141, !llvm.loop !32

164:                                              ; preds = %141
  br label %165

165:                                              ; preds = %164
  %166 = load i32, ptr %13, align 4, !tbaa !12
  %167 = add nsw i32 %166, 2
  store i32 %167, ptr %13, align 4, !tbaa !12
  br label %104, !llvm.loop !33

168:                                              ; preds = %104
  br label %169

169:                                              ; preds = %168
  %170 = load i32, ptr %14, align 4, !tbaa !12
  %171 = add nsw i32 %170, 2
  store i32 %171, ptr %14, align 4, !tbaa !12
  br label %72, !llvm.loop !34

172:                                              ; preds = %72
  %173 = load ptr, ptr %17, align 8, !tbaa !3
  call void @bn_correct_top(ptr noundef %173)
  %174 = load ptr, ptr %7, align 8, !tbaa !3
  %175 = load ptr, ptr %17, align 8, !tbaa !3
  %176 = load ptr, ptr %10, align 8, !tbaa !19
  %177 = call i32 @BN_GF2m_mod_arr(ptr noundef %174, ptr noundef %175, ptr noundef %176)
  %178 = icmp ne i32 %177, 0
  br i1 %178, label %179, label %180

179:                                              ; preds = %172
  store i32 1, ptr %16, align 4, !tbaa !12
  br label %180

180:                                              ; preds = %179, %172
  br label %181

181:                                              ; preds = %180, %52, %38
  %182 = load ptr, ptr %11, align 8, !tbaa !29
  call void @BN_CTX_end(ptr noundef %182)
  %183 = load i32, ptr %16, align 4, !tbaa !12
  store i32 %183, ptr %6, align 4
  store i32 1, ptr %23, align 4
  br label %184

184:                                              ; preds = %181, %27
  call void @llvm.lifetime.end.p0(i64 32, ptr %22) #3
  call void @llvm.lifetime.end.p0(i64 8, ptr %21) #3
  call void @llvm.lifetime.end.p0(i64 8, ptr %20) #3
  call void @llvm.lifetime.end.p0(i64 8, ptr %19) #3
  call void @llvm.lifetime.end.p0(i64 8, ptr %18) #3
  call void @llvm.lifetime.end.p0(i64 8, ptr %17) #3
  call void @llvm.lifetime.end.p0(i64 4, ptr %16) #3
  call void @llvm.lifetime.end.p0(i64 4, ptr %15) #3
  call void @llvm.lifetime.end.p0(i64 4, ptr %14) #3
  call void @llvm.lifetime.end.p0(i64 4, ptr %13) #3
  call void @llvm.lifetime.end.p0(i64 4, ptr %12) #3
  %185 = load i32, ptr %6, align 4
  ret i32 %185
}