; Function Attrs: nounwind uwtable
define range(i32 0, 2) i32 @BN_GF2m_mod_mul_arr(ptr noundef %0, ptr noundef readonly captures(address) %1, ptr noundef readonly captures(address) %2, ptr noundef readonly captures(none) %3, ptr noundef %4) local_unnamed_addr #0 {
  %6 = alloca [4 x i64], align 16
  call void @llvm.lifetime.start.p0(i64 32, ptr nonnull %6) #5
  %7 = icmp eq ptr %1, %2
  br i1 %7, label %8, label %10

8:                                                ; preds = %5
  %9 = tail call i32 @BN_GF2m_mod_sqr_arr(ptr noundef %0, ptr noundef %1, ptr noundef %3, ptr noundef %4)
  br label %73

10:                                               ; preds = %5
  tail call void @BN_CTX_start(ptr noundef %4) #5
  %11 = tail call ptr @BN_CTX_get(ptr noundef %4) #5
  %12 = icmp eq ptr %11, null
  br i1 %12, label %72, label %13

13:                                               ; preds = %10
  %14 = getelementptr inbounds nuw i8, ptr %1, i64 8
  %15 = load i32, ptr %14, align 8, !tbaa !3
  %16 = getelementptr inbounds nuw i8, ptr %2, i64 8
  %17 = load i32, ptr %16, align 8, !tbaa !3
  %18 = add i32 %15, 4
  %19 = add i32 %18, %17
  %20 = tail call ptr @bn_wexpand(ptr noundef nonnull %11, i32 noundef %19) #5
  %.not = icmp eq ptr %20, null
  br i1 %.not, label %72, label %21

21:                                               ; preds = %13
  %22 = getelementptr inbounds nuw i8, ptr %11, i64 8
  store i32 %19, ptr %22, align 8, !tbaa !3
  %23 = icmp sgt i32 %19, 0
  br i1 %23, label %.lr.ph, label %.preheader

.lr.ph:                                           ; preds = %21
  %24 = load ptr, ptr %11, align 8, !tbaa !10
  %25 = zext nneg i32 %19 to i64
  %26 = shl nuw nsw i64 %25, 3
  tail call void @llvm.memset.p0.i64(ptr align 8 %24, i8 0, i64 %26, i1 false), !tbaa !11
  br label %.preheader

.preheader:                                       ; preds = %.lr.ph, %21
  %27 = load i32, ptr %16, align 8, !tbaa !3
  %28 = icmp sgt i32 %27, 0
  br i1 %28, label %.lr.ph72, label %._crit_edge73

.lr.ph72:                                         ; preds = %.preheader, %._crit_edge
  %29 = phi i32 [ %68, %._crit_edge ], [ %27, %.preheader ]
  %indvars.iv79 = phi i64 [ %indvars.iv.next80, %._crit_edge ], [ 0, %.preheader ]
  %30 = load ptr, ptr %2, align 8, !tbaa !10
  %31 = getelementptr inbounds nuw i64, ptr %30, i64 %indvars.iv79
  %32 = load i64, ptr %31, align 8, !tbaa !11
  %33 = or disjoint i64 %indvars.iv79, 1
  %34 = zext i32 %29 to i64
  %35 = icmp eq i64 %33, %34
  br i1 %35, label %39, label %36

36:                                               ; preds = %.lr.ph72
  %37 = getelementptr inbounds nuw i64, ptr %30, i64 %33
  %38 = load i64, ptr %37, align 8, !tbaa !11
  br label %39

39:                                               ; preds = %.lr.ph72, %36
  %40 = phi i64 [ %38, %36 ], [ 0, %.lr.ph72 ]
  %41 = load i32, ptr %14, align 8, !tbaa !3
  %42 = icmp sgt i32 %41, 0
  br i1 %42, label %.lr.ph70, label %._crit_edge

.lr.ph70:                                         ; preds = %39, %64
  %indvars.iv76 = phi i64 [ %indvars.iv.next77, %64 ], [ 0, %39 ]
  %43 = phi i32 [ %65, %64 ], [ %41, %39 ]
  %44 = load ptr, ptr %1, align 8, !tbaa !10
  %45 = getelementptr inbounds nuw i64, ptr %44, i64 %indvars.iv76
  %46 = load i64, ptr %45, align 8, !tbaa !11
  %47 = or disjoint i64 %indvars.iv76, 1
  %48 = zext i32 %43 to i64
  %49 = icmp eq i64 %47, %48
  br i1 %49, label %53, label %50

50:                                               ; preds = %.lr.ph70
  %51 = getelementptr inbounds nuw i64, ptr %44, i64 %47
  %52 = load i64, ptr %51, align 8, !tbaa !11
  br label %53

53:                                               ; preds = %.lr.ph70, %50
  %54 = phi i64 [ %52, %50 ], [ 0, %.lr.ph70 ]
  call void @bn_GF2m_mul_2x2(ptr noundef nonnull %6, i64 noundef %54, i64 noundef %46, i64 noundef %40, i64 noundef %32) #5
  %55 = load ptr, ptr %11, align 8, !tbaa !10
  %56 = getelementptr inbounds nuw i64, ptr %55, i64 %indvars.iv76
  %57 = getelementptr inbounds nuw i64, ptr %56, i64 %indvars.iv79
  br label %58

58:                                               ; preds = %53, %58
  %indvars.iv = phi i64 [ 0, %53 ], [ %indvars.iv.next, %58 ]
  %59 = getelementptr inbounds nuw [4 x i64], ptr %6, i64 0, i64 %indvars.iv
  %60 = load i64, ptr %59, align 8, !tbaa !11
  %61 = getelementptr inbounds nuw i64, ptr %57, i64 %indvars.iv
  %62 = load i64, ptr %61, align 8, !tbaa !11
  %63 = xor i64 %62, %60
  store i64 %63, ptr %61, align 8, !tbaa !11
  %indvars.iv.next = add nuw nsw i64 %indvars.iv, 1
  %exitcond.not = icmp eq i64 %indvars.iv.next, 4
  br i1 %exitcond.not, label %64, label %58, !llvm.loop !23

64:                                               ; preds = %58
  %indvars.iv.next77 = add nuw nsw i64 %indvars.iv76, 2
  %65 = load i32, ptr %14, align 8, !tbaa !3
  %66 = trunc nuw i64 %indvars.iv.next77 to i32
  %67 = icmp sgt i32 %65, %66
  br i1 %67, label %.lr.ph70, label %._crit_edge.loopexit, !llvm.loop !24

._crit_edge.loopexit:                             ; preds = %64
  %.pre = load i32, ptr %16, align 8, !tbaa !3
  br label %._crit_edge

._crit_edge:                                      ; preds = %._crit_edge.loopexit, %39
  %68 = phi i32 [ %.pre, %._crit_edge.loopexit ], [ %29, %39 ]
  %indvars.iv.next80 = add nuw nsw i64 %indvars.iv79, 2
  %69 = trunc nuw i64 %indvars.iv.next80 to i32
  %70 = icmp sgt i32 %68, %69
  br i1 %70, label %.lr.ph72, label %._crit_edge73, !llvm.loop !25

._crit_edge73:                                    ; preds = %._crit_edge, %.preheader
  call void @bn_correct_top(ptr noundef nonnull %11) #5
  %71 = call i32 @BN_GF2m_mod_arr(ptr noundef %0, ptr noundef nonnull %11, ptr noundef %3)
  br label %72

72:                                               ; preds = %._crit_edge73, %13, %10
  %.057 = phi i32 [ 0, %10 ], [ 0, %13 ], [ %71, %._crit_edge73 ]
  call void @BN_CTX_end(ptr noundef %4) #5
  br label %73

73:                                               ; preds = %72, %8
  %.0 = phi i32 [ %9, %8 ], [ %.057, %72 ]
  call void @llvm.lifetime.end.p0(i64 32, ptr nonnull %6) #5
  ret i32 %.0
}